Certificate:
    Data:
        Version: 3 (0x2)
        Serial Number: 3 (0x3)
        Signature Algorithm: sha256WithRSAEncryption
        Issuer: C=CN, ST=shenzhen, L=nanshan, O=yuwei, OU=yw, CN=192.168.31.131/emailAddress=724898928@qq.com
        Validity
            Not Before: Dec 15 09:59:59 2020 GMT
            Not After : Dec 15 09:59:59 2021 GMT
        Subject: C=CN, ST=shenzhen, O=yuwei, OU=yw, CN=192.168.31.131/emailAddress=724898928@qq.com
        Subject Public Key Info:
            Public Key Algorithm: rsaEncryption
                RSA Public-Key: (2048 bit)
                Modulus:
                    00:d5:00:9a:02:5a:ec:8c:4f:59:ab:34:e4:56:70:
                    ba:d9:e8:9f:32:8b:e5:47:6f:aa:4f:6c:79:e2:a8:
                    29:5b:22:e3:12:51:af:40:34:ae:5a:bd:8b:63:d8:
                    62:11:0d:87:be:c6:a6:e0:f3:63:da:84:57:e1:a4:
                    3f:a2:65:61:c9:e9:6c:4e:45:68:4e:de:9d:e9:cc:
                    6b:a4:41:5b:48:53:2c:b7:a2:8b:86:2a:fb:59:7f:
                    f4:48:89:b0:53:50:a4:88:02:4c:eb:e0:96:4c:26:
                    e9:cf:97:25:b6:67:f8:06:bc:88:0a:7b:de:52:9e:
                    86:9a:5e:84:d4:96:bb:3c:66:2f:5a:9d:4b:9d:9a:
                    92:9f:ee:dd:f9:45:48:f1:8b:a3:c4:c6:ca:5b:37:
                    ca:3d:92:80:03:47:42:fd:98:ce:33:f5:59:49:28:
                    a1:d5:d5:14:62:c2:60:8c:15:80:5c:ad:85:4e:16:
                    b2:b9:ec:00:e3:bf:a1:b9:31:df:5a:c3:ce:00:98:
                    7f:cb:fe:c2:66:4f:be:6a:3b:03:15:ea:da:ef:69:
                    a8:1a:02:49:dc:15:ac:72:1e:22:79:21:6c:71:0d:
                    10:72:53:30:e3:f7:5e:f0:db:56:5a:8c:59:53:5d:
                    a4:b6:72:fe:0c:71:a2:cd:f6:c1:b9:e4:a6:bf:16:
                    d1:39
                Exponent: 65537 (0x10001)
        X509v3 extensions:
            X509v3 Basic Constraints: 
                CA:FALSE
            X509v3 Key Usage: 
                Digital Signature, Non Repudiation, Key Encipherment
            X509v3 Subject Alternative Name: 
                DNS:0.0.0.0, DNS:192.168.31.131, DNS:127.0.0.1, DNS:localhost
    Signature Algorithm: sha256WithRSAEncryption
         2c:a5:3a:92:e8:2a:26:92:b7:0c:f8:e9:f1:06:85:05:e5:03:
         ed:29:80:27:b4:48:c2:b9:8e:a9:47:eb:f4:18:8f:3b:88:f0:
         0e:62:64:01:1d:bc:8e:9c:15:13:67:2b:68:5e:75:99:48:ac:
         e3:1d:3c:2e:4b:cc:97:89:62:19:40:61:e0:d3:48:fd:b0:20:
         e0:75:ad:bf:08:79:0e:01:db:c3:e8:11:99:43:c7:88:18:c2:
         ea:c0:77:4a:92:ed:99:95:62:12:25:1e:d4:43:67:af:5a:ff:
         60:47:8b:92:cd:de:f7:05:1a:59:e6:24:1a:c5:9c:c8:94:ca:
         3f:f5:7f:ba:f3:ce:46:bc:d9:01:ba:22:c0:de:40:57:27:15:
         2b:b2:32:46:1b:e0:42:75:84:4c:ed:21:e6:79:29:eb:b7:ff:
         ff:11:6e:8d:1d:24:73:00:13:90:53:a2:2f:f9:0f:9b:e4:a9:
         bd:d9:16:5f:c5:1a:50:32:27:43:da:8a:f5:74:e6:0c:db:5e:
         3a:e6:80:dd:6c:7f:b0:0c:56:5e:0d:32:e0:7d:f2:15:ba:c1:
         aa:ac:f7:ef:8e:ef:4a:43:f3:ce:c7:8d:a2:37:15:99:18:65:
         13:f2:72:74:2b:e9:5b:9f:e0:d3:63:b2:1e:cd:0d:1b:2b:40:
         20:9b:0f:da
-----BEGIN CERTIFICATE-----
MIID0DCCArigAwIBAgIBAzANBgkqhkiG9w0BAQsFADCBiTELMAkGA1UEBhMCQ04x
ETAPBgNVBAgMCHNoZW56aGVuMRAwDgYDVQQHDAduYW5zaGFuMQ4wDAYDVQQKDAV5
dXdlaTELMAkGA1UECwwCeXcxFzAVBgNVBAMMDjE5Mi4xNjguMzEuMTMxMR8wHQYJ
KoZIhvcNAQkBFhA3MjQ4OTg5MjhAcXEuY29tMB4XDTIwMTIxNTA5NTk1OVoXDTIx
MTIxNTA5NTk1OVowdzELMAkGA1UEBhMCQ04xETAPBgNVBAgMCHNoZW56aGVuMQ4w
DAYDVQQKDAV5dXdlaTELMAkGA1UECwwCeXcxFzAVBgNVBAMMDjE5Mi4xNjguMzEu
MTMxMR8wHQYJKoZIhvcNAQkBFhA3MjQ4OTg5MjhAcXEuY29tMIIBIjANBgkqhkiG
9w0BAQEFAAOCAQ8AMIIBCgKCAQEA1QCaAlrsjE9ZqzTkVnC62eifMovlR2+qT2x5
4qgpWyLjElGvQDSuWr2LY9hiEQ2Hvsam4PNj2oRX4aQ/omVhyelsTkVoTt6d6cxr
pEFbSFMst6KLhir7WX/0SImwU1CkiAJM6+CWTCbpz5cltmf4BryICnveUp6Gml6E
1Ja7PGYvWp1LnZqSn+7d+UVI8YujxMbKWzfKPZKAA0dC/ZjOM/VZSSih1dUUYsJg
jBWAXK2FThayuewA47+huTHfWsPOAJh/y/7CZk++ajsDFera72moGgJJ3BWsch4i
eSFscQ0QclMw4/de8NtWWoxZU12ktnL+DHGizfbBueSmvxbROQIDAQABo1QwUjAJ
BgNVHRMEAjAAMAsGA1UdDwQEAwIF4DA4BgNVHREEMTAvggcwLjAuMC4wgg4xOTIu
MTY4LjMxLjEzMYIJMTI3LjAuMC4xgglsb2NhbGhvc3QwDQYJKoZIhvcNAQELBQAD
ggEBACylOpLoKiaStwz46fEGhQXlA+0pgCe0SMK5jqlH6/QYjzuI8A5iZAEdvI6c
FRNnK2hedZlIrOMdPC5LzJeJYhlAYeDTSP2wIOB1rb8IeQ4B28PoEZlDx4gYwurA
d0qS7ZmVYhIlHtRDZ69a/2BHi5LN3vcFGlnmJBrFnMiUyj/1f7rzzka82QG6IsDe
QFcnFSuyMkYb4EJ1hEztIeZ5Keu3//8Rbo0dJHMAE5BToi/5D5vkqb3ZFl/FGlAy
J0PaivV05gzbXjrmgN1sf7AMVl4NMuB98hW6waqs9++O70pD887HjaI3FZkYZRPy
cnQr6Vuf4NNjsh7NDRsrQCCbD9o=
-----END CERTIFICATE-----
