Certificate:
    Data:
        Version: 3 (0x2)
        Serial Number: 2 (0x2)
        Signature Algorithm: sha256WithRSAEncryption
        Issuer: C=CN, ST=shenzhen, L=nanshan, O=yuwei, OU=yw, CN=192.168.31.131/emailAddress=724898928@qq.com
        Validity
            Not Before: Dec 15 09:33:06 2020 GMT
            Not After : Dec 15 09:33:06 2021 GMT
        Subject: C=CN, ST=shenzhen, O=yuwei, OU=yw, CN=192.168.31.131/emailAddress=724898928@qq.com
        Subject Public Key Info:
            Public Key Algorithm: rsaEncryption
                RSA Public-Key: (2048 bit)
                Modulus:
                    00:95:2d:13:a5:80:49:54:45:89:90:0d:a4:25:22:
                    5c:60:88:ad:8a:df:90:31:d8:7d:af:fb:1b:a5:7e:
                    43:dc:a3:ef:f1:41:db:e8:83:99:ad:e3:95:47:ec:
                    03:bb:45:e3:f3:16:d4:cb:b8:82:34:10:dd:cf:7d:
                    5a:12:e6:22:0d:db:4f:94:a0:78:79:d0:13:5b:71:
                    5b:d9:c1:f3:f5:4d:92:4f:7a:77:d0:e8:05:1b:b1:
                    06:4f:c8:3c:f9:b2:77:7c:48:8b:db:b5:63:62:96:
                    7b:d4:0d:fb:30:2b:96:61:15:58:a4:09:af:ee:2f:
                    fa:b7:5e:e8:52:cd:ae:f2:ef:75:69:76:2e:bc:e8:
                    30:fa:47:0f:af:2d:52:1e:1c:b2:58:88:15:e0:c8:
                    bb:bb:9e:4a:9e:36:34:68:05:64:a0:e8:73:ca:8c:
                    d8:3d:3a:bc:3c:53:06:70:8e:fd:7d:17:b3:1e:94:
                    19:28:55:79:98:b1:b5:a2:fb:74:b4:f1:26:b5:3e:
                    65:eb:30:99:c6:c7:a7:35:b4:65:9b:a2:c3:bd:ac:
                    bd:d7:38:21:d3:c3:fd:2f:69:60:8d:b1:18:01:47:
                    89:be:c8:a6:78:cd:cc:54:79:5f:58:0b:84:d3:92:
                    2d:ee:a4:b5:35:39:5d:fb:a7:e7:63:e9:85:3f:54:
                    f4:65
                Exponent: 65537 (0x10001)
        X509v3 extensions:
            X509v3 Basic Constraints: 
                CA:FALSE
            X509v3 Key Usage: 
                Digital Signature, Non Repudiation, Key Encipherment
            X509v3 Subject Alternative Name: 
                DNS:0.0.0.0, DNS:192.168.31.131, DNS:127.0.0.1, DNS:localhost
    Signature Algorithm: sha256WithRSAEncryption
         ad:37:74:fb:4c:2d:28:81:e3:9d:e7:9b:12:75:f8:fa:fc:81:
         28:83:73:5d:94:bd:23:02:34:7f:7e:a7:a3:c9:5c:4e:41:03:
         4e:b6:c8:03:fd:bd:f6:3c:45:ef:2e:07:a7:0e:f6:a1:73:23:
         d6:57:7b:f9:7d:7d:d8:f1:94:11:f0:9c:16:6d:d7:45:23:37:
         89:bc:a0:7d:99:1a:d6:19:0c:cd:6c:fa:ed:4c:6b:eb:a7:03:
         c9:32:e4:3b:98:88:f5:80:8e:79:13:c3:6c:00:44:09:77:89:
         e1:df:bf:55:50:57:43:71:50:04:65:b7:e0:1f:d8:f3:7b:ee:
         6b:08:f8:b5:00:f5:db:d7:ba:cf:86:e2:46:39:fe:8e:b9:a3:
         7b:b2:72:42:cc:49:52:90:88:52:e2:68:75:8e:75:ed:55:3b:
         4d:ef:9e:27:10:a2:8e:5f:74:ab:98:f9:d3:7b:66:52:62:b6:
         f7:51:e6:f0:db:49:cf:f2:3c:a7:1d:75:0f:fd:49:25:b6:a1:
         b8:61:b8:06:89:80:57:e0:82:b1:77:53:08:e8:5d:d4:ea:73:
         6f:87:98:ff:ae:7a:5f:84:2a:21:e2:fb:f5:b5:93:02:46:12:
         70:0b:3e:23:44:bc:d2:cd:9b:c5:68:da:17:c1:5d:71:1f:2f:
         5e:13:eb:16
-----BEGIN CERTIFICATE-----
MIID0DCCArigAwIBAgIBAjANBgkqhkiG9w0BAQsFADCBiTELMAkGA1UEBhMCQ04x
ETAPBgNVBAgMCHNoZW56aGVuMRAwDgYDVQQHDAduYW5zaGFuMQ4wDAYDVQQKDAV5
dXdlaTELMAkGA1UECwwCeXcxFzAVBgNVBAMMDjE5Mi4xNjguMzEuMTMxMR8wHQYJ
KoZIhvcNAQkBFhA3MjQ4OTg5MjhAcXEuY29tMB4XDTIwMTIxNTA5MzMwNloXDTIx
MTIxNTA5MzMwNlowdzELMAkGA1UEBhMCQ04xETAPBgNVBAgMCHNoZW56aGVuMQ4w
DAYDVQQKDAV5dXdlaTELMAkGA1UECwwCeXcxFzAVBgNVBAMMDjE5Mi4xNjguMzEu
MTMxMR8wHQYJKoZIhvcNAQkBFhA3MjQ4OTg5MjhAcXEuY29tMIIBIjANBgkqhkiG
9w0BAQEFAAOCAQ8AMIIBCgKCAQEAlS0TpYBJVEWJkA2kJSJcYIitit+QMdh9r/sb
pX5D3KPv8UHb6IOZreOVR+wDu0Xj8xbUy7iCNBDdz31aEuYiDdtPlKB4edATW3Fb
2cHz9U2ST3p30OgFG7EGT8g8+bJ3fEiL27VjYpZ71A37MCuWYRVYpAmv7i/6t17o
Us2u8u91aXYuvOgw+kcPry1SHhyyWIgV4Mi7u55KnjY0aAVkoOhzyozYPTq8PFMG
cI79fRezHpQZKFV5mLG1ovt0tPEmtT5l6zCZxsenNbRlm6LDvay91zgh08P9L2lg
jbEYAUeJvsimeM3MVHlfWAuE05It7qS1NTld+6fnY+mFP1T0ZQIDAQABo1QwUjAJ
BgNVHRMEAjAAMAsGA1UdDwQEAwIF4DA4BgNVHREEMTAvggcwLjAuMC4wgg4xOTIu
MTY4LjMxLjEzMYIJMTI3LjAuMC4xgglsb2NhbGhvc3QwDQYJKoZIhvcNAQELBQAD
ggEBAK03dPtMLSiB453nmxJ1+Pr8gSiDc12UvSMCNH9+p6PJXE5BA062yAP9vfY8
Re8uB6cO9qFzI9ZXe/l9fdjxlBHwnBZt10UjN4m8oH2ZGtYZDM1s+u1Ma+unA8ky
5DuYiPWAjnkTw2wARAl3ieHfv1VQV0NxUARlt+Af2PN77msI+LUA9dvXus+G4kY5
/o65o3uyckLMSVKQiFLiaHWOde1VO03vnicQoo5fdKuY+dN7ZlJitvdR5vDbSc/y
PKcddQ/9SSW2obhhuAaJgFfggrF3UwjoXdTqc2+HmP+uel+EKiHi+/W1kwJGEnAL
PiNEvNLNm8Vo2hfBXXEfL14T6xY=
-----END CERTIFICATE-----
